; Function Attrs: mustprogress uwtable
define noundef double @_ZNK5Ipopt11DenseVector8AmaxImplEv(ptr nocapture noundef nonnull readonly align 8 dereferenceable(248) %0) unnamed_addr #0 align 2 {
  %2 = getelementptr inbounds i8, ptr %0, i64 56
  %3 = load ptr, ptr %2, align 8
  %4 = getelementptr inbounds i8, ptr %3, i64 12
  %5 = load i32, ptr %4, align 4
  %6 = icmp eq i32 %5, 0
  br i1 %6, label %22, label %7

7:                                                ; preds = %1
  %8 = getelementptr inbounds i8, ptr %0, i64 233
  %9 = load i8, ptr %8, align 1
  %10 = and i8 %9, 1
  %.not = icmp eq i8 %10, 0
  br i1 %.not, label %13, label %11

11:                                               ; preds = %7
  %12 = getelementptr inbounds i8, ptr %0, i64 240
  br label %.sink.split

13:                                               ; preds = %7
  %14 = getelementptr inbounds i8, ptr %0, i64 216
  %15 = load ptr, ptr %14, align 8
  %16 = tail call noundef i32 @_ZN5Ipopt11IpBlasIamaxEiPKdi(i32 noundef %5, ptr noundef %15, i32 noundef 1)
  %17 = sext i32 %16 to i64
  %18 = getelementptr double, ptr %15, i64 %17
  %19 = getelementptr i8, ptr %18, i64 -8
  br label %.sink.split

.sink.split:                                      ; preds = %11, %13
  %.sink2 = phi ptr [ %19, %13 ], [ %12, %11 ]
  %20 = load double, ptr %.sink2, align 8
  %21 = tail call noundef double @llvm.fabs.f64(double %20)
  br label %22

22:                                               ; preds = %.sink.split, %1
  %.0 = phi double [ 0.000000e+00, %1 ], [ %21, %.sink.split ]
  ret double %.0
}